target datalayout = "e-m:e-p270:32:32-p271:32:32-p272:64:64-i64:64-i128:128-f80:128-n8:16:32:64-S128"
target triple = "x86_64-pc-linux-gnu"

%"class.sat::literal" = type { i32 }
%"class.nlsat::explain" = type { ptr }
%"struct.nlsat::explain::imp" = type { ptr, ptr, ptr, ptr, ptr, ptr, ptr, %class.ref_vector, %class.ref_vector, %class.ref_vector, %class.ref_vector, %class.ref_vector, %class._scoped_numeral_vector, i8, i8, i8, i8, i8, i8, %"struct.nlsat::explain::imp::todo_set", %"class.nlsat::scoped_literal_vector", %"class.nlsat::scoped_literal_vector", ptr, %class.svector.1, ptr, %class.ptr_vector, %class.svector.5, %class.svector.7, %class.svector.3, %class.svector.3, %class.svector.3 }
%class.ref_vector = type { %class.ref_vector_core }
%class.ref_vector_core = type { %class.ref_manager_wrapper, %class.ptr_vector }
%class.ref_manager_wrapper = type { ptr }
%class._scoped_numeral_vector = type { %class.svector, ptr }
%class.svector = type { %class.vector.0 }
%class.vector.0 = type { ptr }
%"struct.nlsat::explain::imp::todo_set" = type { ptr, %class.ref_vector, %class.svector.1 }
%"class.nlsat::scoped_literal_vector" = type { ptr, %class.svector.3 }
%class.svector.1 = type { %class.vector.2 }
%class.vector.2 = type { ptr }
%class.ptr_vector = type { %class.vector }
%class.vector = type { ptr }
%class.svector.5 = type { %class.vector.6 }
%class.vector.6 = type { ptr }
%class.svector.7 = type { %class.vector.8 }
%class.vector.8 = type { ptr }
%class.svector.3 = type { %class.vector.4 }
%class.vector.4 = type { ptr }

; Function Attrs: mustprogress nounwind uwtable
define linkonce_odr hidden noundef i32 @_ZNK6vectorIN3sat7literalELb0EjE4sizeEv(ptr noundef nonnull align 8 dereferenceable(8) %0) #4 comdat align 2 {
  %2 = alloca i32, align 4
  %3 = alloca ptr, align 8
  store ptr %0, ptr %3, align 8, !tbaa !127
  %4 = load ptr, ptr %3, align 8
  %5 = getelementptr inbounds nuw %class.vector.4, ptr %4, i32 0, i32 0
  %6 = load ptr, ptr %5, align 8, !tbaa !129
  %7 = icmp eq ptr %6, null
  br i1 %7, label %8, label %9

8:                                                ; preds = %1
  store i32 0, ptr %2, align 4
  br label %14

9:                                                ; preds = %1
  %10 = getelementptr inbounds nuw %class.vector.4, ptr %4, i32 0, i32 0
  %11 = load ptr, ptr %10, align 8, !tbaa !129
  %12 = getelementptr inbounds i32, ptr %11, i64 -1
  %13 = load i32, ptr %12, align 4, !tbaa !8
  store i32 %13, ptr %2, align 4
  br label %14

14:                                               ; preds = %9, %8
  %15 = load i32, ptr %2, align 4
  ret i32 %15
}

; Function Attrs: mustprogress nounwind uwtable
define linkonce_odr hidden noundef ptr @_ZNK6vectorIN3sat7literalELb0EjE3endEv(ptr noundef nonnull align 8 dereferenceable(8) %0) #4 comdat align 2 {
  %2 = alloca ptr, align 8
  store ptr %0, ptr %2, align 8, !tbaa !127
  %3 = load ptr, ptr %2, align 8
  %4 = getelementptr inbounds nuw %class.vector.4, ptr %3, i32 0, i32 0
  %5 = load ptr, ptr %4, align 8, !tbaa !129
  %6 = call noundef i32 @_ZNK6vectorIN3sat7literalELb0EjE4sizeEv(ptr noundef nonnull align 8 dereferenceable(8) %3)
  %7 = zext i32 %6 to i64
  %8 = getelementptr inbounds nuw %"class.sat::literal", ptr %5, i64 %7
  ret ptr %8
}

; Function Attrs: mustprogress nounwind uwtable
define linkonce_odr hidden noundef ptr @_ZNK6vectorIN3sat7literalELb0EjE5beginEv(ptr noundef nonnull align 8 dereferenceable(8) %0) #4 comdat align 2 {
  %2 = alloca ptr, align 8
  store ptr %0, ptr %2, align 8, !tbaa !127
  %3 = load ptr, ptr %2, align 8
  %4 = getelementptr inbounds nuw %class.vector.4, ptr %3, i32 0, i32 0
  %5 = load ptr, ptr %4, align 8, !tbaa !129
  ret ptr %5
}

; Function Attrs: mustprogress nounwind uwtable
define linkonce_odr hidden noundef nonnull align 1 dereferenceable(1) ptr @_ZN6vectorIcLb0EjEixEj(ptr noundef nonnull align 8 dereferenceable(8) %0, i32 noundef %1) #4 comdat align 2 {
  %3 = alloca ptr, align 8
  %4 = alloca i32, align 4
  store ptr %0, ptr %3, align 8, !tbaa !115
  store i32 %1, ptr %4, align 4, !tbaa !8
  %5 = load ptr, ptr %3, align 8
  %6 = getelementptr inbounds nuw %class.vector.2, ptr %5, i32 0, i32 0
  %7 = load ptr, ptr %6, align 8, !tbaa !117
  %8 = load i32, ptr %4, align 4, !tbaa !8
  %9 = zext i32 %8 to i64
  %10 = getelementptr inbounds nuw i8, ptr %7, i64 %9
  ret ptr %10
}

; Function Attrs: mustprogress nounwind uwtable
define linkonce_odr hidden noundef i32 @_ZNK3sat7literal5indexEv(ptr noundef nonnull align 4 dereferenceable(4) %0) #4 comdat align 2 {
  %2 = alloca ptr, align 8
  store ptr %0, ptr %2, align 8, !tbaa !3
  %3 = load ptr, ptr %2, align 8
  %4 = getelementptr inbounds nuw %"class.sat::literal", ptr %3, i32 0, i32 0
  %5 = load i32, ptr %4, align 4, !tbaa !14
  ret i32 %5
}

; Function Attrs: mustprogress uwtable
define linkonce_odr hidden noundef ptr @_ZNK5nlsat21scoped_literal_vector3endEv(ptr noundef nonnull align 8 dereferenceable(16) %0) #6 comdat align 2 {
  %2 = alloca ptr, align 8
  store ptr %0, ptr %2, align 8, !tbaa !70
  %3 = load ptr, ptr %2, align 8
  %4 = getelementptr inbounds nuw %"class.nlsat::scoped_literal_vector", ptr %3, i32 0, i32 1
  %5 = call noundef ptr @_ZNK6vectorIN3sat7literalELb0EjE3endEv(ptr noundef nonnull align 8 dereferenceable(8) %4)
  ret ptr %5
}

; Function Attrs: mustprogress uwtable
define linkonce_odr hidden noundef ptr @_ZNK5nlsat21scoped_literal_vector5beginEv(ptr noundef nonnull align 8 dereferenceable(16) %0) #6 comdat align 2 {
  %2 = alloca ptr, align 8
  store ptr %0, ptr %2, align 8, !tbaa !70
  %3 = load ptr, ptr %2, align 8
  %4 = getelementptr inbounds nuw %"class.nlsat::scoped_literal_vector", ptr %3, i32 0, i32 1
  %5 = call noundef ptr @_ZNK6vectorIN3sat7literalELb0EjE5beginEv(ptr noundef nonnull align 8 dereferenceable(8) %4)
  ret ptr %5
}

; Function Attrs: mustprogress uwtable
define linkonce_odr hidden void @_ZN5nlsat7explain3imp19reset_already_addedEv(ptr noundef nonnull align 8 dereferenceable(296) %0) #6 comdat align 2 {
  %2 = alloca ptr, align 8
  %3 = alloca ptr, align 8
  %4 = alloca ptr, align 8
  %5 = alloca ptr, align 8
  %6 = alloca %"class.sat::literal", align 4
  store ptr %0, ptr %2, align 8, !tbaa !31
  %7 = load ptr, ptr %2, align 8
  call void @llvm.lifetime.start.p0(i64 8, ptr %3) #3
  %8 = getelementptr inbounds nuw %"struct.nlsat::explain::imp", ptr %7, i32 0, i32 22
  %9 = load ptr, ptr %8, align 8, !tbaa !65
  store ptr %9, ptr %3, align 8, !tbaa !70
  call void @llvm.lifetime.start.p0(i64 8, ptr %4) #3
  %10 = load ptr, ptr %3, align 8, !tbaa !70
  %11 = call noundef ptr @_ZNK5nlsat21scoped_literal_vector5beginEv(ptr noundef nonnull align 8 dereferenceable(16) %10)
  store ptr %11, ptr %4, align 8, !tbaa !3
  call void @llvm.lifetime.start.p0(i64 8, ptr %5) #3
  %12 = load ptr, ptr %3, align 8, !tbaa !70
  %13 = call noundef ptr @_ZNK5nlsat21scoped_literal_vector3endEv(ptr noundef nonnull align 8 dereferenceable(16) %12)
  store ptr %13, ptr %5, align 8, !tbaa !3
  br label %14

14:                                               ; preds = %24, %1
  %15 = load ptr, ptr %4, align 8, !tbaa !3
  %16 = load ptr, ptr %5, align 8, !tbaa !3
  %17 = icmp ne ptr %15, %16
  br i1 %17, label %19, label %18

18:                                               ; preds = %14
  call void @llvm.lifetime.end.p0(i64 8, ptr %5) #3
  call void @llvm.lifetime.end.p0(i64 8, ptr %4) #3
  call void @llvm.lifetime.end.p0(i64 8, ptr %3) #3
  br label %27

19:                                               ; preds = %14
  call void @llvm.lifetime.start.p0(i64 4, ptr %6) #3
  %20 = load ptr, ptr %4, align 8, !tbaa !3
  call void @llvm.memcpy.p0.p0.i64(ptr align 4 %6, ptr align 4 %20, i64 4, i1 false), !tbaa.struct !73
  %21 = getelementptr inbounds nuw %"struct.nlsat::explain::imp", ptr %7, i32 0, i32 23
  %22 = call noundef i32 @_ZNK3sat7literal5indexEv(ptr noundef nonnull align 4 dereferenceable(4) %6)
  %23 = call noundef nonnull align 1 dereferenceable(1) ptr @_ZN6vectorIcLb0EjEixEj(ptr noundef nonnull align 8 dereferenceable(8) %21, i32 noundef %22)
  store i8 0, ptr %23, align 1, !tbaa !134
  call void @llvm.lifetime.end.p0(i64 4, ptr %6) #3
  br label %24

24:                                               ; preds = %19
  %25 = load ptr, ptr %4, align 8, !tbaa !3
  %26 = getelementptr inbounds nuw %"class.sat::literal", ptr %25, i32 1
  store ptr %26, ptr %4, align 8, !tbaa !3
  br label %14

27:                                               ; preds = %18
  ret void
}

; Function Attrs: mustprogress uwtable
define linkonce_odr hidden void @_ZN5nlsat7explain3imp17test_root_literalENS_4atom4kindEjjPN10polynomial10polynomialERNS_21scoped_literal_vectorE(ptr noundef nonnull align 8 dereferenceable(296) %0, i32 noundef %1, i32 noundef %2, i32 noundef %3, ptr noundef %4, ptr noundef nonnull align 8 dereferenceable(16) %5) #6 comdat align 2 {
  %7 = alloca ptr, align 8
  %8 = alloca i32, align 4
  %9 = alloca i32, align 4
  %10 = alloca i32, align 4
  %11 = alloca ptr, align 8
  %12 = alloca ptr, align 8
  store ptr %0, ptr %7, align 8, !tbaa !31
  store i32 %1, ptr %8, align 4, !tbaa !88
  store i32 %2, ptr %9, align 4, !tbaa !8
  store i32 %3, ptr %10, align 4, !tbaa !8
  store ptr %4, ptr %11, align 8, !tbaa !90
  store ptr %5, ptr %12, align 8, !tbaa !70
  %13 = load ptr, ptr %7, align 8
  %14 = load ptr, ptr %12, align 8, !tbaa !70
  %15 = getelementptr inbounds nuw %"struct.nlsat::explain::imp", ptr %13, i32 0, i32 22
  store ptr %14, ptr %15, align 8, !tbaa !65
  %16 = load i32, ptr %8, align 4, !tbaa !88
  %17 = load i32, ptr %9, align 4, !tbaa !8
  %18 = load i32, ptr %10, align 4, !tbaa !8
  %19 = load ptr, ptr %11, align 8, !tbaa !90
  call void @_ZN5nlsat7explain3imp16add_root_literalENS_4atom4kindEjjPN10polynomial10polynomialE(ptr noundef nonnull align 8 dereferenceable(296) %13, i32 noundef %16, i32 noundef %17, i32 noundef %18, ptr noundef %19)
  call void @_ZN5nlsat7explain3imp19reset_already_addedEv(ptr noundef nonnull align 8 dereferenceable(296) %13)
  %20 = getelementptr inbounds nuw %"struct.nlsat::explain::imp", ptr %13, i32 0, i32 22
  store ptr null, ptr %20, align 8, !tbaa !65
  ret void
}

; Function Attrs: mustprogress uwtable
define hidden void @_ZN5nlsat7explain17test_root_literalENS_4atom4kindEjjPN10polynomial10polynomialERNS_21scoped_literal_vectorE(ptr noundef nonnull align 8 dereferenceable(8) %0, i32 noundef %1, i32 noundef %2, i32 noundef %3, ptr noundef %4, ptr noundef nonnull align 8 dereferenceable(16) %5) #6 align 2 {
  %7 = alloca ptr, align 8
  %8 = alloca i32, align 4
  %9 = alloca i32, align 4
  %10 = alloca i32, align 4
  %11 = alloca ptr, align 8
  %12 = alloca ptr, align 8
  store ptr %0, ptr %7, align 8, !tbaa !16
  store i32 %1, ptr %8, align 4, !tbaa !88
  store i32 %2, ptr %9, align 4, !tbaa !8
  store i32 %3, ptr %10, align 4, !tbaa !8
  store ptr %4, ptr %11, align 8, !tbaa !90
  store ptr %5, ptr %12, align 8, !tbaa !70
  %13 = load ptr, ptr %7, align 8
  %14 = getelementptr inbounds nuw %"class.nlsat::explain", ptr %13, i32 0, i32 0
  %15 = load ptr, ptr %14, align 8, !tbaa !28
  %16 = load i32, ptr %8, align 4, !tbaa !88
  %17 = load i32, ptr %9, align 4, !tbaa !8
  %18 = load i32, ptr %10, align 4, !tbaa !8
  %19 = load ptr, ptr %11, align 8, !tbaa !90
  %20 = load ptr, ptr %12, align 8, !tbaa !70
  call void @_ZN5nlsat7explain3imp17test_root_literalENS_4atom4kindEjjPN10polynomial10polynomialERNS_21scoped_literal_vectorE(ptr noundef nonnull align 8 dereferenceable(296) %15, i32 noundef %16, i32 noundef %17, i32 noundef %18, ptr noundef %19, ptr noundef nonnull align 8 dereferenceable(16) %20)
  ret void
}