; Function Attrs: mustprogress uwtable
define hidden void @_ZN5nlsat7explain17test_root_literalENS_4atom4kindEjjPN10polynomial10polynomialERNS_21scoped_literal_vectorE(ptr noundef nonnull readonly align 8 captures(none) dereferenceable(8) %0, i32 noundef %1, i32 noundef %2, i32 noundef %3, ptr noundef %4, ptr noundef nonnull align 8 dereferenceable(16) %5) local_unnamed_addr #4 align 2 {
  %7 = load ptr, ptr %0, align 8, !tbaa !3
  %8 = getelementptr inbounds nuw i8, ptr %7, i64 224
  store ptr %5, ptr %8, align 8, !tbaa !65
  tail call void @_ZN5nlsat7explain3imp16add_root_literalENS_4atom4kindEjjPN10polynomial10polynomialE(ptr noundef nonnull align 8 dereferenceable(296) %7, i32 noundef %1, i32 noundef %2, i32 noundef %3, ptr noundef %4)
  %9 = load ptr, ptr %8, align 8, !tbaa !65
  %10 = getelementptr inbounds nuw i8, ptr %9, i64 8
  %11 = load ptr, ptr %10, align 8, !tbaa !55
  %12 = icmp eq ptr %11, null
  br i1 %12, label %_ZN5nlsat7explain3imp17test_root_literalENS_4atom4kindEjjPN10polynomial10polynomialERNS_21scoped_literal_vectorE.exit, label %_ZNK5nlsat21scoped_literal_vector3endEv.exit.i.i

_ZNK5nlsat21scoped_literal_vector3endEv.exit.i.i: ; preds = %6
  %13 = getelementptr inbounds i8, ptr %11, i64 -4
  %14 = load i32, ptr %13, align 4, !tbaa !61
  %15 = zext i32 %14 to i64
  %16 = getelementptr inbounds nuw %"class.sat::literal", ptr %11, i64 %15
  %.not7.i.i = icmp eq i32 %14, 0
  br i1 %.not7.i.i, label %_ZN5nlsat7explain3imp17test_root_literalENS_4atom4kindEjjPN10polynomial10polynomialERNS_21scoped_literal_vectorE.exit, label %.lr.ph.i.i

.lr.ph.i.i:                                       ; preds = %_ZNK5nlsat21scoped_literal_vector3endEv.exit.i.i
  %17 = getelementptr inbounds nuw i8, ptr %7, i64 232
  br label %18

18:                                               ; preds = %18, %.lr.ph.i.i
  %.08.i.i = phi ptr [ %11, %.lr.ph.i.i ], [ %23, %18 ]
  %19 = load i32, ptr %.08.i.i, align 4, !tbaa !61
  %20 = load ptr, ptr %17, align 8, !tbaa !66
  %21 = zext i32 %19 to i64
  %22 = getelementptr inbounds nuw i8, ptr %20, i64 %21
  store i8 0, ptr %22, align 1, !tbaa !67
  %23 = getelementptr inbounds nuw i8, ptr %.08.i.i, i64 4
  %.not.i.i = icmp eq ptr %23, %16
  br i1 %.not.i.i, label %_ZN5nlsat7explain3imp17test_root_literalENS_4atom4kindEjjPN10polynomial10polynomialERNS_21scoped_literal_vectorE.exit, label %18

_ZN5nlsat7explain3imp17test_root_literalENS_4atom4kindEjjPN10polynomial10polynomialERNS_21scoped_literal_vectorE.exit: ; preds = %18, %6, %_ZNK5nlsat21scoped_literal_vector3endEv.exit.i.i
  store ptr null, ptr %8, align 8, !tbaa !65
  ret void
}